; Function Attrs: mustprogress nounwind uwtable
define internal void @_ZN7rocksdb12_GLOBAL__N_121TwoLevelIndexIteratorD2Ev(ptr noundef nonnull align 8 dereferenceable(160) %this) unnamed_addr #4 align 2 personality ptr @__gxx_personality_v0 {
entry:
  store ptr getelementptr inbounds ({ [27 x ptr] }, ptr @_ZTVN7rocksdb12_GLOBAL__N_121TwoLevelIndexIteratorE, i64 0, i32 0, i64 2), ptr %this, align 8
  %first_level_iter_ = getelementptr inbounds i8, ptr %this, i64 48
  %0 = load ptr, ptr %first_level_iter_, align 8
  %tobool.not.i = icmp eq ptr %0, null
  br i1 %tobool.not.i, label %_ZN7rocksdb19IteratorWrapperBaseINS_10IndexValueEE10DeleteIterEb.exit, label %if.then.i

if.then.i:                                        ; preds = %entry
  %vtable6.i = load ptr, ptr %0, align 8
  %vtable6.sink.i = getelementptr inbounds i8, ptr %vtable6.i, i64 8
  %1 = load ptr, ptr %vtable6.sink.i, align 8
  tail call void %1(ptr noundef nonnull align 8 dereferenceable(40) %0) #11
  br label %_ZN7rocksdb19IteratorWrapperBaseINS_10IndexValueEE10DeleteIterEb.exit

_ZN7rocksdb19IteratorWrapperBaseINS_10IndexValueEE10DeleteIterEb.exit: ; preds = %entry, %if.then.i
  %second_level_iter_ = getelementptr inbounds i8, ptr %this, i64 88
  %2 = load ptr, ptr %second_level_iter_, align 8
  %tobool.not.i1 = icmp eq ptr %2, null
  br i1 %tobool.not.i1, label %_ZN7rocksdb19IteratorWrapperBaseINS_10IndexValueEE10DeleteIterEb.exit5, label %if.then.i2

if.then.i2:                                       ; preds = %_ZN7rocksdb19IteratorWrapperBaseINS_10IndexValueEE10DeleteIterEb.exit
  %vtable6.i3 = load ptr, ptr %2, align 8
  %vtable6.sink.i4 = getelementptr inbounds i8, ptr %vtable6.i3, i64 8
  %3 = load ptr, ptr %vtable6.sink.i4, align 8
  tail call void %3(ptr noundef nonnull align 8 dereferenceable(40) %2) #11
  br label %_ZN7rocksdb19IteratorWrapperBaseINS_10IndexValueEE10DeleteIterEb.exit5

_ZN7rocksdb19IteratorWrapperBaseINS_10IndexValueEE10DeleteIterEb.exit5: ; preds = %_ZN7rocksdb19IteratorWrapperBaseINS_10IndexValueEE10DeleteIterEb.exit, %if.then.i2
  %state_ = getelementptr inbounds i8, ptr %this, i64 40
  %4 = load ptr, ptr %state_, align 8
  %isnull = icmp eq ptr %4, null
  br i1 %isnull, label %delete.end, label %delete.notnull

delete.notnull:                                   ; preds = %_ZN7rocksdb19IteratorWrapperBaseINS_10IndexValueEE10DeleteIterEb.exit5
  %vtable = load ptr, ptr %4, align 8
  %vfn = getelementptr inbounds i8, ptr %vtable, i64 8
  %5 = load ptr, ptr %vfn, align 8
  tail call void %5(ptr noundef nonnull align 8 dereferenceable(8) %4) #11
  br label %delete.end

delete.end:                                       ; preds = %delete.notnull, %_ZN7rocksdb19IteratorWrapperBaseINS_10IndexValueEE10DeleteIterEb.exit5
  %state_.i = getelementptr inbounds i8, ptr %this, i64 136
  %6 = load ptr, ptr %state_.i, align 8
  %cmp.not.i.i = icmp eq ptr %6, null
  br i1 %cmp.not.i.i, label %_ZN7rocksdb6StatusD2Ev.exit, label %_ZNKSt14default_deleteIA_KcEclIS0_EENSt9enable_ifIXsr14is_convertibleIPA_T_PS1_EE5valueEvE4typeEPS5_.exit.i.i

_ZNKSt14default_deleteIA_KcEclIS0_EENSt9enable_ifIXsr14is_convertibleIPA_T_PS1_EE5valueEvE4typeEPS5_.exit.i.i: ; preds = %delete.end
  tail call void @_ZdaPv(ptr noundef nonnull %6) #12
  br label %_ZN7rocksdb6StatusD2Ev.exit

_ZN7rocksdb6StatusD2Ev.exit:                      ; preds = %delete.end, %_ZNKSt14default_deleteIA_KcEclIS0_EENSt9enable_ifIXsr14is_convertibleIPA_T_PS1_EE5valueEvE4typeEPS5_.exit.i.i
  store ptr null, ptr %state_.i, align 8
  %7 = getelementptr inbounds i8, ptr %this, i64 8
  tail call void @_ZN7rocksdb9CleanableD2Ev(ptr noundef nonnull align 8 dereferenceable(32) %7) #11
  ret void
}